; Function Attrs: mustprogress nounwind uwtable
define internal void @_ZN4node12_GLOBAL__N_110SignalWrap5CloseEN2v85LocalINS2_5ValueEEE(ptr noundef nonnull align 8 dereferenceable(241) %this, ptr %close_callback.coerce) unnamed_addr #3 align 2 {
entry:
  %signum.addr.i = alloca i32, align 4
  %active_ = getelementptr inbounds i8, ptr %this, i64 240
  %0 = load i8, ptr %active_, align 8
  %1 = and i8 %0, 1
  %tobool.not = icmp eq i8 %1, 0
  br i1 %tobool.not, label %if.end, label %if.then

if.then:                                          ; preds = %entry
  %signum = getelementptr inbounds i8, ptr %this, i64 192
  %2 = load i32, ptr %signum, align 8
  call void @llvm.lifetime.start.p0(i64 4, ptr nonnull %signum.addr.i)
  store i32 %2, ptr %signum.addr.i, align 4
  tail call void @uv_mutex_lock(ptr noundef nonnull @_ZN4node12_GLOBAL__N_121handled_signals_mutexE) #16
  %call.i = call noundef nonnull align 8 dereferenceable(8) ptr @_ZNSt3mapIilSt4lessIiESaISt4pairIKilEEEixERS3_(ptr noundef nonnull align 8 dereferenceable(48) @_ZN4node12_GLOBAL__N_115handled_signalsE, ptr noundef nonnull align 4 dereferenceable(4) %signum.addr.i)
  %3 = load i64, ptr %call.i, align 8
  %dec.i = add nsw i64 %3, -1
  store i64 %dec.i, ptr %call.i, align 8
  %cmp.i = icmp slt i64 %3, 1
  br i1 %cmp.i, label %do.body3.i, label %do.end5.i

do.body3.i:                                       ; preds = %if.then
  call void @_ZN4node6AssertERKNS_13AssertionInfoE(ptr noundef nonnull align 8 dereferenceable(24) @_ZZN4node26DecreaseSignalHandlerCountEiE4args) #16
  call void @abort() #17
  unreachable

do.end5.i:                                        ; preds = %if.then
  %cmp6.i = icmp eq i64 %dec.i, 0
  br i1 %cmp6.i, label %if.then7.i, label %_ZN4node26DecreaseSignalHandlerCountEi.exit

if.then7.i:                                       ; preds = %do.end5.i
  %call.i.i = call noundef i64 @_ZNSt8_Rb_treeIiSt4pairIKilESt10_Select1stIS2_ESt4lessIiESaIS2_EE5eraseERS1_(ptr noundef nonnull align 8 dereferenceable(48) @_ZN4node12_GLOBAL__N_115handled_signalsE, ptr noundef nonnull align 4 dereferenceable(4) %signum.addr.i)
  br label %_ZN4node26DecreaseSignalHandlerCountEi.exit

_ZN4node26DecreaseSignalHandlerCountEi.exit:      ; preds = %do.end5.i, %if.then7.i
  call void @uv_mutex_unlock(ptr noundef nonnull @_ZN4node12_GLOBAL__N_121handled_signals_mutexE) #16
  call void @llvm.lifetime.end.p0(i64 4, ptr nonnull %signum.addr.i)
  store i8 0, ptr %active_, align 8
  br label %if.end

if.end:                                           ; preds = %_ZN4node26DecreaseSignalHandlerCountEi.exit, %entry
  call void @_ZN4node10HandleWrap5CloseEN2v85LocalINS1_5ValueEEE(ptr noundef nonnull align 8 dereferenceable(88) %this, ptr %close_callback.coerce) #16
  ret void
}